target datalayout = "e-m:e-p270:32:32-p271:32:32-p272:64:64-i64:64-i128:128-f80:128-n8:16:32:64-S128"
target triple = "x86_64-pc-linux-gnu"

%struct.strvec = type { ptr, i64, i64 }
%struct.gc_config = type { i32, i32, i32, i64, i32, i32, i32, i32, i32, ptr, ptr, ptr, ptr, ptr, i64, i64, i64 }

@repack = internal global %struct.strvec { ptr @empty_strvec, i64 0, i64 0 }, align 8
@.str.78 = private unnamed_addr constant [4 x i8] c"now\00", align 1
@.str.79 = private unnamed_addr constant [3 x i8] c"-a\00", align 1
@.str.80 = private unnamed_addr constant [8 x i8] c"--cruft\00", align 1
@.str.81 = private unnamed_addr constant [22 x i8] c"--cruft-expiration=%s\00", align 1
@.str.82 = private unnamed_addr constant [21 x i8] c"--max-cruft-size=%lu\00", align 1
@.str.83 = private unnamed_addr constant [3 x i8] c"-A\00", align 1
@.str.84 = private unnamed_addr constant [24 x i8] c"--unpack-unreachable=%s\00", align 1
@.str.85 = private unnamed_addr constant [12 x i8] c"--filter=%s\00", align 1
@.str.86 = private unnamed_addr constant [15 x i8] c"--filter-to=%s\00", align 1

; Function Attrs: nounwind uwtable
define internal void @add_repack_all_option(ptr noundef %0, ptr noundef %1) #0 {
  %3 = alloca ptr, align 8
  %4 = alloca ptr, align 8
  store ptr %0, ptr %3, align 8, !tbaa !90
  store ptr %1, ptr %4, align 8, !tbaa !95
  %5 = load ptr, ptr %3, align 8, !tbaa !90
  %6 = getelementptr inbounds nuw %struct.gc_config, ptr %5, i32 0, i32 10
  %7 = load ptr, ptr %6, align 8, !tbaa !27
  %8 = icmp ne ptr %7, null
  br i1 %8, label %9, label %17

9:                                                ; preds = %2
  %10 = load ptr, ptr %3, align 8, !tbaa !90
  %11 = getelementptr inbounds nuw %struct.gc_config, ptr %10, i32 0, i32 10
  %12 = load ptr, ptr %11, align 8, !tbaa !27
  %13 = call i32 @strcmp(ptr noundef %12, ptr noundef @.str.78) #13
  %14 = icmp ne i32 %13, 0
  br i1 %14, label %17, label %15

15:                                               ; preds = %9
  %16 = call ptr @strvec_push(ptr noundef @repack, ptr noundef @.str.79)
  br label %57

17:                                               ; preds = %9, %2
  %18 = load ptr, ptr %3, align 8, !tbaa !90
  %19 = getelementptr inbounds nuw %struct.gc_config, ptr %18, i32 0, i32 2
  %20 = load i32, ptr %19, align 8, !tbaa !19
  %21 = icmp ne i32 %20, 0
  br i1 %21, label %22, label %44

22:                                               ; preds = %17
  %23 = call ptr @strvec_push(ptr noundef @repack, ptr noundef @.str.80)
  %24 = load ptr, ptr %3, align 8, !tbaa !90
  %25 = getelementptr inbounds nuw %struct.gc_config, ptr %24, i32 0, i32 10
  %26 = load ptr, ptr %25, align 8, !tbaa !27
  %27 = icmp ne ptr %26, null
  br i1 %27, label %28, label %33

28:                                               ; preds = %22
  %29 = load ptr, ptr %3, align 8, !tbaa !90
  %30 = getelementptr inbounds nuw %struct.gc_config, ptr %29, i32 0, i32 10
  %31 = load ptr, ptr %30, align 8, !tbaa !27
  %32 = call ptr (ptr, ptr, ...) @strvec_pushf(ptr noundef @repack, ptr noundef @.str.81, ptr noundef %31)
  br label %33

33:                                               ; preds = %28, %22
  %34 = load ptr, ptr %3, align 8, !tbaa !90
  %35 = getelementptr inbounds nuw %struct.gc_config, ptr %34, i32 0, i32 3
  %36 = load i64, ptr %35, align 8, !tbaa !20
  %37 = icmp ne i64 %36, 0
  br i1 %37, label %38, label %43

38:                                               ; preds = %33
  %39 = load ptr, ptr %3, align 8, !tbaa !90
  %40 = getelementptr inbounds nuw %struct.gc_config, ptr %39, i32 0, i32 3
  %41 = load i64, ptr %40, align 8, !tbaa !20
  %42 = call ptr (ptr, ptr, ...) @strvec_pushf(ptr noundef @repack, ptr noundef @.str.82, i64 noundef %41)
  br label %43

43:                                               ; preds = %38, %33
  br label %56

44:                                               ; preds = %17
  %45 = call ptr @strvec_push(ptr noundef @repack, ptr noundef @.str.83)
  %46 = load ptr, ptr %3, align 8, !tbaa !90
  %47 = getelementptr inbounds nuw %struct.gc_config, ptr %46, i32 0, i32 10
  %48 = load ptr, ptr %47, align 8, !tbaa !27
  %49 = icmp ne ptr %48, null
  br i1 %49, label %50, label %55

50:                                               ; preds = %44
  %51 = load ptr, ptr %3, align 8, !tbaa !90
  %52 = getelementptr inbounds nuw %struct.gc_config, ptr %51, i32 0, i32 10
  %53 = load ptr, ptr %52, align 8, !tbaa !27
  %54 = call ptr (ptr, ptr, ...) @strvec_pushf(ptr noundef @repack, ptr noundef @.str.84, ptr noundef %53)
  br label %55

55:                                               ; preds = %50, %44
  br label %56

56:                                               ; preds = %55, %43
  br label %57

57:                                               ; preds = %56, %15
  %58 = load ptr, ptr %4, align 8, !tbaa !95
  %59 = icmp ne ptr %58, null
  br i1 %59, label %60, label %63

60:                                               ; preds = %57
  %61 = load ptr, ptr %4, align 8, !tbaa !95
  %62 = call i32 @for_each_string_list(ptr noundef %61, ptr noundef @keep_one_pack, ptr noundef null)
  br label %63

63:                                               ; preds = %60, %57
  %64 = load ptr, ptr %3, align 8, !tbaa !90
  %65 = getelementptr inbounds nuw %struct.gc_config, ptr %64, i32 0, i32 12
  %66 = load ptr, ptr %65, align 8, !tbaa !29
  %67 = icmp ne ptr %66, null
  br i1 %67, label %68, label %80

68:                                               ; preds = %63
  %69 = load ptr, ptr %3, align 8, !tbaa !90
  %70 = getelementptr inbounds nuw %struct.gc_config, ptr %69, i32 0, i32 12
  %71 = load ptr, ptr %70, align 8, !tbaa !29
  %72 = load i8, ptr %71, align 1, !tbaa !93
  %73 = sext i8 %72 to i32
  %74 = icmp ne i32 %73, 0
  br i1 %74, label %75, label %80

75:                                               ; preds = %68
  %76 = load ptr, ptr %3, align 8, !tbaa !90
  %77 = getelementptr inbounds nuw %struct.gc_config, ptr %76, i32 0, i32 12
  %78 = load ptr, ptr %77, align 8, !tbaa !29
  %79 = call ptr (ptr, ptr, ...) @strvec_pushf(ptr noundef @repack, ptr noundef @.str.85, ptr noundef %78)
  br label %80

80:                                               ; preds = %75, %68, %63
  %81 = load ptr, ptr %3, align 8, !tbaa !90
  %82 = getelementptr inbounds nuw %struct.gc_config, ptr %81, i32 0, i32 13
  %83 = load ptr, ptr %82, align 8, !tbaa !30
  %84 = icmp ne ptr %83, null
  br i1 %84, label %85, label %97

85:                                               ; preds = %80
  %86 = load ptr, ptr %3, align 8, !tbaa !90
  %87 = getelementptr inbounds nuw %struct.gc_config, ptr %86, i32 0, i32 13
  %88 = load ptr, ptr %87, align 8, !tbaa !30
  %89 = load i8, ptr %88, align 1, !tbaa !93
  %90 = sext i8 %89 to i32
  %91 = icmp ne i32 %90, 0
  br i1 %91, label %92, label %97

92:                                               ; preds = %85
  %93 = load ptr, ptr %3, align 8, !tbaa !90
  %94 = getelementptr inbounds nuw %struct.gc_config, ptr %93, i32 0, i32 13
  %95 = load ptr, ptr %94, align 8, !tbaa !30
  %96 = call ptr (ptr, ptr, ...) @strvec_pushf(ptr noundef @repack, ptr noundef @.str.86, ptr noundef %95)
  br label %97

97:                                               ; preds = %92, %85, %80
  ret void
}