; Function Attrs: nounwind uwtable
define internal fastcc void @add_repack_all_option(ptr noundef readonly captures(none) %0, ptr noundef nonnull %1) unnamed_addr #0 {
  %3 = getelementptr inbounds nuw i8, ptr %0, i64 56
  %4 = load ptr, ptr %3, align 8, !tbaa !22
  %.not = icmp eq ptr %4, null
  br i1 %.not, label %9, label %5

5:                                                ; preds = %2
  %6 = tail call i32 @strcmp(ptr noundef nonnull dereferenceable(1) %4, ptr noundef nonnull dereferenceable(4) @.str.78) #25
  %.not23 = icmp eq i32 %6, 0
  br i1 %.not23, label %7, label %9

7:                                                ; preds = %5
  %8 = tail call ptr @strvec_push(ptr noundef nonnull @repack, ptr noundef nonnull @.str.79) #21
  br label %27

9:                                                ; preds = %5, %2
  %10 = getelementptr inbounds nuw i8, ptr %0, i64 8
  %11 = load i32, ptr %10, align 8, !tbaa !14
  %.not24 = icmp eq i32 %11, 0
  br i1 %.not24, label %22, label %12

12:                                               ; preds = %9
  %13 = tail call ptr @strvec_push(ptr noundef nonnull @repack, ptr noundef nonnull @.str.80) #21
  %14 = load ptr, ptr %3, align 8, !tbaa !22
  %.not26 = icmp eq ptr %14, null
  br i1 %.not26, label %17, label %15

15:                                               ; preds = %12
  %16 = tail call ptr (ptr, ptr, ...) @strvec_pushf(ptr noundef nonnull @repack, ptr noundef nonnull @.str.81, ptr noundef nonnull %14) #21
  br label %17

17:                                               ; preds = %15, %12
  %18 = getelementptr inbounds nuw i8, ptr %0, i64 16
  %19 = load i64, ptr %18, align 8, !tbaa !15
  %.not27 = icmp eq i64 %19, 0
  br i1 %.not27, label %27, label %20

20:                                               ; preds = %17
  %21 = tail call ptr (ptr, ptr, ...) @strvec_pushf(ptr noundef nonnull @repack, ptr noundef nonnull @.str.82, i64 noundef %19) #21
  br label %27

22:                                               ; preds = %9
  %23 = tail call ptr @strvec_push(ptr noundef nonnull @repack, ptr noundef nonnull @.str.83) #21
  %24 = load ptr, ptr %3, align 8, !tbaa !22
  %.not25 = icmp eq ptr %24, null
  br i1 %.not25, label %27, label %25

25:                                               ; preds = %22
  %26 = tail call ptr (ptr, ptr, ...) @strvec_pushf(ptr noundef nonnull @repack, ptr noundef nonnull @.str.84, ptr noundef nonnull %24) #21
  br label %27

27:                                               ; preds = %7, %22, %25, %17, %20
  %28 = tail call i32 @for_each_string_list(ptr noundef nonnull %1, ptr noundef nonnull @keep_one_pack, ptr noundef null) #21
  %29 = getelementptr inbounds nuw i8, ptr %0, i64 72
  %30 = load ptr, ptr %29, align 8, !tbaa !100
  %.not28 = icmp eq ptr %30, null
  br i1 %.not28, label %35, label %31

31:                                               ; preds = %27
  %32 = load i8, ptr %30, align 1, !tbaa !102
  %.not29 = icmp eq i8 %32, 0
  br i1 %.not29, label %35, label %33

33:                                               ; preds = %31
  %34 = tail call ptr (ptr, ptr, ...) @strvec_pushf(ptr noundef nonnull @repack, ptr noundef nonnull @.str.85, ptr noundef nonnull %30) #21
  br label %35

35:                                               ; preds = %33, %31, %27
  %36 = getelementptr inbounds nuw i8, ptr %0, i64 80
  %37 = load ptr, ptr %36, align 8, !tbaa !101
  %.not30 = icmp eq ptr %37, null
  br i1 %.not30, label %42, label %38

38:                                               ; preds = %35
  %39 = load i8, ptr %37, align 1, !tbaa !102
  %.not31 = icmp eq i8 %39, 0
  br i1 %.not31, label %42, label %40

40:                                               ; preds = %38
  %41 = tail call ptr (ptr, ptr, ...) @strvec_pushf(ptr noundef nonnull @repack, ptr noundef nonnull @.str.86, ptr noundef nonnull %37) #21
  br label %42

42:                                               ; preds = %40, %38, %35
  ret void
}